
LED_BLINK.elf:     file format elf32-avr

Sections:
Idx Name          Size      VMA       LMA       File off  Algn
  0 .data         00000000  00800100  00800100  000001ca  2**0
                  CONTENTS, ALLOC, LOAD, DATA
  1 .text         00000176  00000000  00000000  00000054  2**1
                  CONTENTS, ALLOC, LOAD, READONLY, CODE
  2 .comment      00000030  00000000  00000000  000001ca  2**0
                  CONTENTS, READONLY
  3 .note.gnu.avr.deviceinfo 0000003c  00000000  00000000  000001fc  2**2
                  CONTENTS, READONLY
  4 .debug_aranges 00000080  00000000  00000000  00000238  2**0
                  CONTENTS, READONLY, DEBUGGING
  5 .debug_info   00000281  00000000  00000000  000002b8  2**0
                  CONTENTS, READONLY, DEBUGGING
  6 .debug_abbrev 00000145  00000000  00000000  00000539  2**0
                  CONTENTS, READONLY, DEBUGGING
  7 .debug_line   000001a3  00000000  00000000  0000067e  2**0
                  CONTENTS, READONLY, DEBUGGING
  8 .debug_frame  0000010c  00000000  00000000  00000824  2**2
                  CONTENTS, READONLY, DEBUGGING
  9 .debug_str    00000246  00000000  00000000  00000930  2**0
                  CONTENTS, READONLY, DEBUGGING
 10 .debug_loc    00000085  00000000  00000000  00000b76  2**0
                  CONTENTS, READONLY, DEBUGGING
 11 .debug_ranges 00000070  00000000  00000000  00000bfb  2**0
                  CONTENTS, READONLY, DEBUGGING

Disassembly of section .text:

00000000 <__vectors>:
   0:	1d c0       	rjmp	.+58     	; 0x3c <__ctors_end>
   2:	2c c0       	rjmp	.+88     	; 0x5c <__bad_interrupt>
   4:	2b c0       	rjmp	.+86     	; 0x5c <__bad_interrupt>
   6:	2a c0       	rjmp	.+84     	; 0x5c <__bad_interrupt>
   8:	29 c0       	rjmp	.+82     	; 0x5c <__bad_interrupt>
   a:	28 c0       	rjmp	.+80     	; 0x5c <__bad_interrupt>
   c:	27 c0       	rjmp	.+78     	; 0x5c <__bad_interrupt>
   e:	26 c0       	rjmp	.+76     	; 0x5c <__bad_interrupt>
  10:	25 c0       	rjmp	.+74     	; 0x5c <__bad_interrupt>
  12:	24 c0       	rjmp	.+72     	; 0x5c <__bad_interrupt>
  14:	23 c0       	rjmp	.+70     	; 0x5c <__bad_interrupt>
  16:	22 c0       	rjmp	.+68     	; 0x5c <__bad_interrupt>
  18:	22 c0       	rjmp	.+68     	; 0x5e <__vector_12>
  1a:	20 c0       	rjmp	.+64     	; 0x5c <__bad_interrupt>
  1c:	1f c0       	rjmp	.+62     	; 0x5c <__bad_interrupt>
  1e:	1e c0       	rjmp	.+60     	; 0x5c <__bad_interrupt>
  20:	1d c0       	rjmp	.+58     	; 0x5c <__bad_interrupt>
  22:	1c c0       	rjmp	.+56     	; 0x5c <__bad_interrupt>
  24:	1b c0       	rjmp	.+54     	; 0x5c <__bad_interrupt>
  26:	1a c0       	rjmp	.+52     	; 0x5c <__bad_interrupt>
  28:	19 c0       	rjmp	.+50     	; 0x5c <__bad_interrupt>
  2a:	18 c0       	rjmp	.+48     	; 0x5c <__bad_interrupt>
  2c:	17 c0       	rjmp	.+46     	; 0x5c <__bad_interrupt>
  2e:	16 c0       	rjmp	.+44     	; 0x5c <__bad_interrupt>
  30:	15 c0       	rjmp	.+42     	; 0x5c <__bad_interrupt>
  32:	14 c0       	rjmp	.+40     	; 0x5c <__bad_interrupt>
  34:	13 c0       	rjmp	.+38     	; 0x5c <__bad_interrupt>
  36:	12 c0       	rjmp	.+36     	; 0x5c <__bad_interrupt>
  38:	11 c0       	rjmp	.+34     	; 0x5c <__bad_interrupt>
  3a:	10 c0       	rjmp	.+32     	; 0x5c <__bad_interrupt>

0000003c <__ctors_end>:
  3c:	11 24       	eor	r1, r1
  3e:	1f be       	out	0x3f, r1	; 63
  40:	cf ef       	ldi	r28, 0xFF	; 255
  42:	d2 e0       	ldi	r29, 0x02	; 2
  44:	de bf       	out	0x3e, r29	; 62
  46:	cd bf       	out	0x3d, r28	; 61

00000048 <__do_clear_bss>:
  48:	21 e0       	ldi	r18, 0x01	; 1
  4a:	a0 e0       	ldi	r26, 0x00	; 0
  4c:	b1 e0       	ldi	r27, 0x01	; 1
  4e:	01 c0       	rjmp	.+2      	; 0x52 <.do_clear_bss_start>

00000050 <.do_clear_bss_loop>:
  50:	1d 92       	st	X+, r1

00000052 <.do_clear_bss_start>:
  52:	a0 30       	cpi	r26, 0x00	; 0
  54:	b2 07       	cpc	r27, r18
  56:	e1 f7       	brne	.-8      	; 0x50 <.do_clear_bss_loop>
  58:	7f d0       	rcall	.+254    	; 0x158 <main>
  5a:	8b c0       	rjmp	.+278    	; 0x172 <_exit>

0000005c <__bad_interrupt>:
  5c:	d1 cf       	rjmp	.-94     	; 0x0 <__vectors>

0000005e <__vector_12>:
//function declarations
void initialiseAnalogComparator(void);
void initialisePWMtimer(void);

ISR(ANA_COMP0_vect)
{
  5e:	1f 92       	push	r1
  60:	0f 92       	push	r0
  62:	0f b6       	in	r0, 0x3f	; 63
  64:	0f 92       	push	r0
  66:	11 24       	eor	r1, r1
  68:	2f 93       	push	r18
  6a:	8f 93       	push	r24
  6c:	9f 93       	push	r25
	//disable interrupts
	ACSR0A &= ~(1<<ACIE0);
  6e:	53 98       	cbi	0x0a, 3	; 10
	//turn LED(0) on & all others off & reset
	PORTB ^= (1<<PORTB0);
  70:	98 b3       	in	r25, 0x18	; 24
  72:	81 e0       	ldi	r24, 0x01	; 1
  74:	98 27       	eor	r25, r24
  76:	98 bb       	out	0x18, r25	; 24
	PORTB ^= (1<<PORTB1);
  78:	28 b3       	in	r18, 0x18	; 24
  7a:	92 e0       	ldi	r25, 0x02	; 2
  7c:	92 27       	eor	r25, r18
  7e:	98 bb       	out	0x18, r25	; 24
	//toggle between rising and falling
	ACSR0A ^= (1<<ACIS00);
  80:	9a b1       	in	r25, 0x0a	; 10
  82:	89 27       	eor	r24, r25
  84:	8a b9       	out	0x0a, r24	; 10
	//enable interrupts once service done
	ACSR0A |= (1<<ACIE0);
  86:	53 9a       	sbi	0x0a, 3	; 10
}
  88:	9f 91       	pop	r25
  8a:	8f 91       	pop	r24
  8c:	2f 91       	pop	r18
  8e:	0f 90       	pop	r0
  90:	0f be       	out	0x3f, r0	; 63
  92:	0f 90       	pop	r0
  94:	1f 90       	pop	r1
  96:	18 95       	reti

00000098 <initialiseAnalogComparator>:
}

void initialiseAnalogComparator(void){

	// clear control and status register A
	 ACSR0A &= ~(ACSR0A);
  98:	8a b1       	in	r24, 0x0a	; 10
  9a:	9a b1       	in	r25, 0x0a	; 10
  9c:	80 95       	com	r24
  9e:	89 23       	and	r24, r25
  a0:	8a b9       	out	0x0a, r24	; 10

	// clear control and status register B
	 ACSR0B &= ~(ACSR0B);
  a2:	8b b1       	in	r24, 0x0b	; 11
  a4:	9b b1       	in	r25, 0x0b	; 11
  a6:	80 95       	com	r24
  a8:	89 23       	and	r24, r25
  aa:	8b b9       	out	0x0b, r24	; 11

	//Set hysteresis level of 50mV
	ACSR0B |= (1<<HSEL0) | (1<<HLEV0);
  ac:	8b b1       	in	r24, 0x0b	; 11
  ae:	80 6c       	ori	r24, 0xC0	; 192
  b0:	8b b9       	out	0x0b, r24	; 11

	//enable output comparator
	ACSR0B |= (1<<ACOE0);
  b2:	5c 9a       	sbi	0x0b, 4	; 11

	//set rising edge
	ACSR0A |= (1<<ACIS01) | (1<<ACIS00);
  b4:	8a b1       	in	r24, 0x0a	; 10
  b6:	83 60       	ori	r24, 0x03	; 3
  b8:	8a b9       	out	0x0a, r24	; 10
	
	//initialise interrupt enable
	ACSR0A |= (1<<ACIE0);
  ba:	53 9a       	sbi	0x0a, 3	; 10
  bc:	08 95       	ret

000000be <initialisePWMtimer>:
}

void initialisePWMtimer(void){
  be:	cf 93       	push	r28
  c0:	df 93       	push	r29
	unsigned int timerCount = (2^16) - count;
	double dutyCycle = 0.5;
	unsigned int compareCount;
	
	//clear control register A (Timer 2)
	TCCR2A &= ~(TCCR2A);
  c2:	aa ec       	ldi	r26, 0xCA	; 202
  c4:	b0 e0       	ldi	r27, 0x00	; 0
  c6:	8c 91       	ld	r24, X
  c8:	9c 91       	ld	r25, X
  ca:	80 95       	com	r24
  cc:	89 23       	and	r24, r25
  ce:	8c 93       	st	X, r24

	//clear control register B (Timer 2)
	TCCR2B &= ~(TCCR2B);
  d0:	e9 ec       	ldi	r30, 0xC9	; 201
  d2:	f0 e0       	ldi	r31, 0x00	; 0
  d4:	80 81       	ld	r24, Z
  d6:	90 81       	ld	r25, Z
  d8:	80 95       	com	r24
  da:	89 23       	and	r24, r25
  dc:	80 83       	st	Z, r24

	//clear timer output compare marker register A1
	TOCPMSA1 &= ~(TOCPMSA1);
  de:	48 e6       	ldi	r20, 0x68	; 104
  e0:	50 e0       	ldi	r21, 0x00	; 0
  e2:	ea 01       	movw	r28, r20
  e4:	88 81       	ld	r24, Y
  e6:	98 81       	ld	r25, Y
  e8:	80 95       	com	r24
  ea:	89 23       	and	r24, r25
  ec:	88 83       	st	Y, r24

	//clear timer output compare marker register A0
	TOCPMSA0 &= ~(TOCPMSA0);
  ee:	87 e6       	ldi	r24, 0x67	; 103
  f0:	90 e0       	ldi	r25, 0x00	; 0
  f2:	ec 01       	movw	r28, r24
  f4:	28 81       	ld	r18, Y
  f6:	38 81       	ld	r19, Y
  f8:	20 95       	com	r18
  fa:	23 23       	and	r18, r19
  fc:	28 83       	st	Y, r18

	//Compare Output Mode, Fast PWM (toggle on output compare match)
	TCCR2A |= (1<<COM2A0);
  fe:	8c 91       	ld	r24, X
 100:	80 64       	ori	r24, 0x40	; 64
 102:	8c 93       	st	X, r24

	//10-bit Fast PWM, Waveform Generator Mode
	TCCR2A |= (1<<WGM20) | (1<<WGM21);
 104:	8c 91       	ld	r24, X
 106:	83 60       	ori	r24, 0x03	; 3
 108:	8c 93       	st	X, r24
	TCCR2B |= (1<<WGM22);
 10a:	80 81       	ld	r24, Z
 10c:	88 60       	ori	r24, 0x08	; 8
 10e:	80 83       	st	Z, r24

	//set clock speed (16MHz)
	TCCR2B |= (1<<CS20);
 110:	80 81       	ld	r24, Z
 112:	81 60       	ori	r24, 0x01	; 1
 114:	80 83       	st	Z, r24

	//set output to TOCC1
	TOCPMSA1 |= (1<<TOCC1S1);
 116:	fa 01       	movw	r30, r20
 118:	80 81       	ld	r24, Z
 11a:	88 60       	ori	r24, 0x08	; 8
 11c:	80 83       	st	Z, r24
	//TOCPMSA0 |= (1<<TOCC3S1);  

	//clearing register
	TOCPMCOE &= ~(TOCPMCOE);
 11e:	e6 e6       	ldi	r30, 0x66	; 102
 120:	f0 e0       	ldi	r31, 0x00	; 0
 122:	80 81       	ld	r24, Z
 124:	90 81       	ld	r25, Z
 126:	80 95       	com	r24
 128:	89 23       	and	r24, r25
 12a:	80 83       	st	Z, r24

	//set channel 1 as output/enable
	TOCPMCOE |= (1<<TOCC1OE);
 12c:	80 81       	ld	r24, Z
 12e:	82 60       	ori	r24, 0x02	; 2
 130:	80 83       	st	Z, r24
	
	//initialising max count(overflow)
	TCNT2H = (timerCount>>8);
 132:	8f ef       	ldi	r24, 0xFF	; 255
 134:	80 93 c7 00 	sts	0x00C7, r24
	TCNT2L = timerCount;
 138:	9b e4       	ldi	r25, 0x4B	; 75
 13a:	90 93 c6 00 	sts	0x00C6, r25

	compareCount = timerCount + (count*dutyCycle);
	
	//initialise output compare registers
	OCR2AH = (compareCount>>8);
 13e:	80 93 c5 00 	sts	0x00C5, r24
	OCR2AL = compareCount;
 142:	8e ea       	ldi	r24, 0xAE	; 174
 144:	80 93 c4 00 	sts	0x00C4, r24
	TIMSK2 &= ~(TIMSK2);
 148:	81 b3       	in	r24, 0x11	; 17
 14a:	91 b3       	in	r25, 0x11	; 17
 14c:	80 95       	com	r24
 14e:	89 23       	and	r24, r25
 150:	81 bb       	out	0x11, r24	; 17

	//set output compare A and B interrupt enable
	//TIMSK2 |= (1<<OCIE2B); 
	

}
 152:	df 91       	pop	r29
 154:	cf 91       	pop	r28
 156:	08 95       	ret

00000158 <main>:
}

int main(void)
{
	// PIN B0 B1 is output 2x LED's
	DDRB |= (1<<DDB0);
 158:	b8 9a       	sbi	0x17, 0	; 23
	DDRB |= (1<<DDB1);
 15a:	b9 9a       	sbi	0x17, 1	; 23

	DDRA |= (1<<PORTA2);
 15c:	d2 9a       	sbi	0x1a, 2	; 26

	//initialize Analog Comparator
	initialiseAnalogComparator();
 15e:	9c df       	rcall	.-200    	; 0x98 <initialiseAnalogComparator>
	//initialise PWM timer
	initialisePWMtimer();
 160:	ae df       	rcall	.-164    	; 0xbe <initialisePWMtimer>

	//clear port B
	PORTB &= ~(PORTB);
 162:	98 b3       	in	r25, 0x18	; 24
 164:	88 b3       	in	r24, 0x18	; 24
 166:	90 95       	com	r25
 168:	89 23       	and	r24, r25
 16a:	88 bb       	out	0x18, r24	; 24

	//turn LED on initially for polling 
	PORTB |= (1<<PORTB0);
 16c:	c0 9a       	sbi	0x18, 0	; 24

	//enable global interrupts
	sei();
 16e:	78 94       	sei

	while (1) {	
	}
 170:	ff cf       	rjmp	.-2      	; 0x170 <main+0x18>

00000172 <_exit>:
 172:	f8 94       	cli

00000174 <__stop_program>:
 174:	ff cf       	rjmp	.-2      	; 0x174 <__stop_program>
